; Function Attrs: nounwind uwtable
define noalias noundef ptr @Wlc_NtkExtractCisForThisRead(ptr noundef readonly captures(none) %0, i32 noundef %1) local_unnamed_addr #0 {
  %3 = tail call noalias dereferenceable_or_null(16) ptr @malloc(i64 noundef 16) #25
  %4 = getelementptr inbounds nuw i8, ptr %3, i64 4
  store i32 0, ptr %4, align 4, !tbaa !26
  store i32 100, ptr %3, align 8, !tbaa !25
  %5 = tail call noalias dereferenceable_or_null(400) ptr @malloc(i64 noundef 400) #25
  %6 = getelementptr inbounds nuw i8, ptr %3, i64 8
  store ptr %5, ptr %6, align 8, !tbaa !3
  %7 = getelementptr i8, ptr %0, i64 4
  %.val1422 = load i32, ptr %7, align 4, !tbaa !26
  %8 = icmp sgt i32 %.val1422, 2
  br i1 %8, label %.lr.ph, label %._crit_edge

.lr.ph:                                           ; preds = %2
  %9 = getelementptr i8, ptr %0, i64 8
  br label %10

10:                                               ; preds = %.lr.ph, %65
  %.val1431 = phi i32 [ %.val1422, %.lr.ph ], [ %.val14, %65 ]
  %.pre.i1727 = phi ptr [ %5, %.lr.ph ], [ %.pre.i1728, %65 ]
  %11 = phi ptr [ %5, %.lr.ph ], [ %.pre.i26, %65 ]
  %indvars.iv = phi i64 [ 0, %.lr.ph ], [ %indvars.iv.next, %65 ]
  %12 = mul nuw nsw i64 %indvars.iv, 3
  %.val13 = load ptr, ptr %9, align 8, !tbaa !3
  %13 = getelementptr inbounds nuw i32, ptr %.val13, i64 %12
  %14 = load i32, ptr %13, align 4, !tbaa !10
  %.not = icmp eq i32 %1, %14
  br i1 %.not, label %15, label %65

15:                                               ; preds = %10
  %16 = getelementptr inbounds nuw i8, ptr %13, i64 4
  %17 = load i32, ptr %16, align 4, !tbaa !10
  %18 = load i32, ptr %4, align 4, !tbaa !26
  %19 = load i32, ptr %3, align 8, !tbaa !25
  %20 = icmp eq i32 %18, %19
  br i1 %20, label %21, label %Vec_IntPush.exit

21:                                               ; preds = %15
  %22 = icmp slt i32 %18, 16
  br i1 %22, label %23, label %28

23:                                               ; preds = %21
  %.not9.i.i = icmp eq ptr %11, null
  br i1 %.not9.i.i, label %26, label %24

24:                                               ; preds = %23
  %25 = tail call dereferenceable_or_null(64) ptr @realloc(ptr noundef nonnull %11, i64 noundef 64) #27
  br label %Vec_IntPush.exit.sink.split

26:                                               ; preds = %23
  %27 = tail call noalias dereferenceable_or_null(64) ptr @malloc(i64 noundef 64) #25
  br label %Vec_IntPush.exit.sink.split

28:                                               ; preds = %21
  %29 = shl nuw nsw i32 %18, 1
  %.not9.i9.i = icmp eq ptr %11, null
  %30 = zext nneg i32 %29 to i64
  %31 = shl nuw nsw i64 %30, 2
  br i1 %.not9.i9.i, label %34, label %32

32:                                               ; preds = %28
  %33 = tail call ptr @realloc(ptr noundef nonnull %11, i64 noundef %31) #27
  br label %Vec_IntPush.exit.sink.split

34:                                               ; preds = %28
  %35 = tail call noalias ptr @malloc(i64 noundef %31) #25
  br label %Vec_IntPush.exit.sink.split

Vec_IntPush.exit.sink.split:                      ; preds = %32, %34, %24, %26
  %.sink34 = phi ptr [ %25, %24 ], [ %27, %26 ], [ %33, %32 ], [ %35, %34 ]
  %.sink = phi i32 [ 16, %24 ], [ 16, %26 ], [ %29, %32 ], [ %29, %34 ]
  store ptr %.sink34, ptr %6, align 8, !tbaa !3
  store i32 %.sink, ptr %3, align 8, !tbaa !25
  br label %Vec_IntPush.exit

Vec_IntPush.exit:                                 ; preds = %Vec_IntPush.exit.sink.split, %15
  %36 = phi ptr [ %.pre.i1727, %15 ], [ %.sink34, %Vec_IntPush.exit.sink.split ]
  %37 = phi ptr [ %11, %15 ], [ %.sink34, %Vec_IntPush.exit.sink.split ]
  %38 = add nsw i32 %18, 1
  store i32 %38, ptr %4, align 4, !tbaa !26
  %39 = sext i32 %18 to i64
  %40 = getelementptr inbounds i32, ptr %37, i64 %39
  store i32 %17, ptr %40, align 4, !tbaa !10
  %.val = load ptr, ptr %9, align 8, !tbaa !3
  %41 = getelementptr inbounds nuw i32, ptr %.val, i64 %12
  %42 = getelementptr inbounds nuw i8, ptr %41, i64 8
  %43 = load i32, ptr %42, align 4, !tbaa !10
  %44 = load i32, ptr %4, align 4, !tbaa !26
  %45 = load i32, ptr %3, align 8, !tbaa !25
  %46 = icmp eq i32 %44, %45
  br i1 %46, label %47, label %Vec_IntPush.exit21

47:                                               ; preds = %Vec_IntPush.exit
  %48 = icmp slt i32 %44, 16
  br i1 %48, label %49, label %54

49:                                               ; preds = %47
  %.not9.i.i19 = icmp eq ptr %36, null
  br i1 %.not9.i.i19, label %52, label %50

50:                                               ; preds = %49
  %51 = tail call dereferenceable_or_null(64) ptr @realloc(ptr noundef nonnull %36, i64 noundef 64) #27
  br label %Vec_IntPush.exit21.sink.split

52:                                               ; preds = %49
  %53 = tail call noalias dereferenceable_or_null(64) ptr @malloc(i64 noundef 64) #25
  br label %Vec_IntPush.exit21.sink.split

54:                                               ; preds = %47
  %55 = shl nuw nsw i32 %44, 1
  %.not9.i9.i18 = icmp eq ptr %36, null
  %56 = zext nneg i32 %55 to i64
  %57 = shl nuw nsw i64 %56, 2
  br i1 %.not9.i9.i18, label %60, label %58

58:                                               ; preds = %54
  %59 = tail call ptr @realloc(ptr noundef nonnull %36, i64 noundef %57) #27
  br label %Vec_IntPush.exit21.sink.split

60:                                               ; preds = %54
  %61 = tail call noalias ptr @malloc(i64 noundef %57) #25
  br label %Vec_IntPush.exit21.sink.split

Vec_IntPush.exit21.sink.split:                    ; preds = %58, %60, %50, %52
  %.sink36 = phi ptr [ %51, %50 ], [ %53, %52 ], [ %59, %58 ], [ %61, %60 ]
  %.sink35 = phi i32 [ 16, %50 ], [ 16, %52 ], [ %55, %58 ], [ %55, %60 ]
  store ptr %.sink36, ptr %6, align 8, !tbaa !3
  store i32 %.sink35, ptr %3, align 8, !tbaa !25
  br label %Vec_IntPush.exit21

Vec_IntPush.exit21:                               ; preds = %Vec_IntPush.exit21.sink.split, %Vec_IntPush.exit
  %.pre.i1729 = phi ptr [ %36, %Vec_IntPush.exit ], [ %.sink36, %Vec_IntPush.exit21.sink.split ]
  %62 = add nsw i32 %44, 1
  store i32 %62, ptr %4, align 4, !tbaa !26
  %63 = sext i32 %44 to i64
  %64 = getelementptr inbounds i32, ptr %.pre.i1729, i64 %63
  store i32 %43, ptr %64, align 4, !tbaa !10
  %.val14.pre = load i32, ptr %7, align 4, !tbaa !26
  br label %65

65:                                               ; preds = %10, %Vec_IntPush.exit21
  %.val14 = phi i32 [ %.val1431, %10 ], [ %.val14.pre, %Vec_IntPush.exit21 ]
  %.pre.i1728 = phi ptr [ %.pre.i1727, %10 ], [ %.pre.i1729, %Vec_IntPush.exit21 ]
  %.pre.i26 = phi ptr [ %11, %10 ], [ %.pre.i1729, %Vec_IntPush.exit21 ]
  %indvars.iv.next = add nuw nsw i64 %indvars.iv, 1
  %66 = sdiv i32 %.val14, 3
  %67 = sext i32 %66 to i64
  %68 = icmp slt i64 %indvars.iv.next, %67
  br i1 %68, label %10, label %._crit_edge, !llvm.loop !164

._crit_edge:                                      ; preds = %65, %2
  ret ptr %3
}